; Function Attrs: nounwind uwtable
define internal void @GL_DestroyRenderer(ptr noundef readonly captures(none) %0) #0 {
  %2 = getelementptr inbounds nuw i8, ptr %0, i64 696
  %3 = load ptr, ptr %2, align 8
  %.not = icmp eq ptr %3, null
  br i1 %.not, label %64, label %4

4:                                                ; preds = %1
  %5 = load ptr, ptr %3, align 8
  %.not24 = icmp eq ptr %5, null
  br i1 %.not24, label %8, label %6

6:                                                ; preds = %4
  %7 = tail call fastcc zeroext i1 @GL_ActivateRenderer(ptr noundef nonnull %0)
  %.val.pre = load ptr, ptr %2, align 8
  br label %8

8:                                                ; preds = %6, %4
  %.val = phi ptr [ %.val.pre, %6 ], [ %3, %4 ]
  %9 = getelementptr inbounds nuw i8, ptr %.val, i64 8
  %10 = load i8, ptr %9, align 8, !range !3, !noundef !4
  %11 = trunc nuw i8 %10 to i1
  br i1 %11, label %12, label %GL_ClearErrors.exit

12:                                               ; preds = %8
  %13 = getelementptr inbounds nuw i8, ptr %.val, i64 9
  %14 = load i8, ptr %13, align 1, !range !3, !noundef !4
  %15 = trunc nuw i8 %14 to i1
  br i1 %15, label %16, label %30

16:                                               ; preds = %12
  %17 = getelementptr inbounds nuw i8, ptr %.val, i64 12
  %18 = load i32, ptr %17, align 4
  %.not14.i = icmp eq i32 %18, 0
  br i1 %.not14.i, label %GL_ClearErrors.exit, label %.preheader.i

.preheader.i:                                     ; preds = %16
  %19 = icmp sgt i32 %18, 0
  br i1 %19, label %.lr.ph.i, label %._crit_edge.i

.lr.ph.i:                                         ; preds = %.preheader.i
  %20 = getelementptr inbounds nuw i8, ptr %.val, i64 16
  br label %21

21:                                               ; preds = %21, %.lr.ph.i
  %indvars.iv.i = phi i64 [ 0, %.lr.ph.i ], [ %indvars.iv.next.i, %21 ]
  %22 = load ptr, ptr %20, align 8
  %23 = getelementptr inbounds nuw ptr, ptr %22, i64 %indvars.iv.i
  %24 = load ptr, ptr %23, align 8
  tail call void @SDL_free_REAL(ptr noundef %24) #7
  %indvars.iv.next.i = add nuw nsw i64 %indvars.iv.i, 1
  %25 = load i32, ptr %17, align 4
  %26 = sext i32 %25 to i64
  %27 = icmp slt i64 %indvars.iv.next.i, %26
  br i1 %27, label %21, label %._crit_edge.i, !llvm.loop !11

._crit_edge.i:                                    ; preds = %21, %.preheader.i
  %28 = getelementptr inbounds nuw i8, ptr %.val, i64 16
  %29 = load ptr, ptr %28, align 8
  tail call void @SDL_free_REAL(ptr noundef %29) #7
  store i32 0, ptr %17, align 4
  store ptr null, ptr %28, align 8
  br label %GL_ClearErrors.exit

30:                                               ; preds = %12
  %31 = getelementptr inbounds nuw i8, ptr %.val, i64 216
  %32 = load ptr, ptr %31, align 8
  %.not.i = icmp eq ptr %32, null
  br i1 %.not.i, label %GL_ClearErrors.exit, label %.preheader1.i

.preheader1.i:                                    ; preds = %30, %.preheader1.i
  %33 = load ptr, ptr %31, align 8
  %34 = tail call i32 %33() #7
  %.not13.i = icmp eq i32 %34, 0
  br i1 %.not13.i, label %GL_ClearErrors.exit, label %.preheader1.i, !llvm.loop !12

GL_ClearErrors.exit:                              ; preds = %.preheader1.i, %8, %16, %._crit_edge.i, %30
  %35 = getelementptr inbounds nuw i8, ptr %3, i64 9
  %36 = load i8, ptr %35, align 1, !range !3, !noundef !4
  %37 = trunc nuw i8 %36 to i1
  br i1 %37, label %38, label %44

38:                                               ; preds = %GL_ClearErrors.exit
  %39 = tail call ptr @SDL_GL_GetProcAddress_REAL(ptr noundef nonnull @.str.3) #7
  %40 = getelementptr inbounds nuw i8, ptr %3, i64 24
  %41 = load ptr, ptr %40, align 8
  %42 = getelementptr inbounds nuw i8, ptr %3, i64 32
  %43 = load ptr, ptr %42, align 8
  tail call void %39(ptr noundef %41, ptr noundef %43) #7
  br label %44

44:                                               ; preds = %38, %GL_ClearErrors.exit
  %45 = getelementptr inbounds nuw i8, ptr %3, i64 504
  %46 = load ptr, ptr %45, align 8
  %.not25 = icmp eq ptr %46, null
  br i1 %.not25, label %48, label %47

47:                                               ; preds = %44
  tail call void @GL_DestroyShaderContext(ptr noundef nonnull %46) #7
  br label %48

48:                                               ; preds = %47, %44
  %49 = load ptr, ptr %3, align 8
  %.not26 = icmp eq ptr %49, null
  br i1 %.not26, label %63, label %.preheader

.preheader:                                       ; preds = %48
  %50 = getelementptr inbounds nuw i8, ptr %3, i64 48
  %51 = load ptr, ptr %50, align 8
  %.not2728 = icmp eq ptr %51, null
  br i1 %.not2728, label %._crit_edge, label %.lr.ph

.lr.ph:                                           ; preds = %.preheader
  %52 = getelementptr inbounds nuw i8, ptr %3, i64 472
  br label %53

53:                                               ; preds = %.lr.ph, %53
  %54 = phi ptr [ %51, %.lr.ph ], [ %56, %53 ]
  %55 = getelementptr inbounds nuw i8, ptr %54, i64 16
  %56 = load ptr, ptr %55, align 8
  %57 = load ptr, ptr %52, align 8
  %58 = getelementptr inbounds nuw i8, ptr %54, i64 8
  tail call void %57(i32 noundef 1, ptr noundef nonnull %58) #7
  %59 = tail call fastcc zeroext i1 @GL_CheckAllErrors(ptr noundef nonnull @.str.24, ptr noundef nonnull %0, i32 noundef 1616, ptr noundef nonnull @__func__.GL_DestroyRenderer)
  %60 = load ptr, ptr %50, align 8
  tail call void @SDL_free_REAL(ptr noundef %60) #7
  store ptr %56, ptr %50, align 8
  %.not27 = icmp eq ptr %56, null
  br i1 %.not27, label %._crit_edge.loopexit, label %53, !llvm.loop !13

._crit_edge.loopexit:                             ; preds = %53
  %.pre = load ptr, ptr %3, align 8
  br label %._crit_edge

._crit_edge:                                      ; preds = %._crit_edge.loopexit, %.preheader
  %61 = phi ptr [ %.pre, %._crit_edge.loopexit ], [ %49, %.preheader ]
  %62 = tail call zeroext i1 @SDL_GL_DestroyContext_REAL(ptr noundef %61) #7
  br label %63

63:                                               ; preds = %._crit_edge, %48
  tail call void @SDL_free_REAL(ptr noundef nonnull %3) #7
  br label %64

64:                                               ; preds = %63, %1
  ret void
}